; Function Attrs: nounwind uwtable
define dso_local void @slurm_destroy_assoc_shares_object(ptr noundef %0) local_unnamed_addr #1 {
  %2 = alloca ptr, align 8
  call void @llvm.lifetime.start.p0(i64 8, ptr nonnull %2) #24
  store ptr %0, ptr %2, align 8
  %.not = icmp eq ptr %0, null
  br i1 %.not, label %11, label %3

3:                                                ; preds = %1
  %4 = getelementptr inbounds nuw i8, ptr %0, i64 8
  tail call void @slurm_xfree(ptr noundef nonnull %4) #24
  %5 = getelementptr inbounds nuw i8, ptr %0, i64 16
  tail call void @slurm_xfree(ptr noundef nonnull %5) #24
  %6 = getelementptr inbounds nuw i8, ptr %0, i64 24
  tail call void @slurm_xfree(ptr noundef nonnull %6) #24
  %7 = getelementptr inbounds nuw i8, ptr %0, i64 32
  tail call void @slurm_xfree(ptr noundef nonnull %7) #24
  %8 = getelementptr inbounds nuw i8, ptr %0, i64 56
  tail call void @slurm_xfree(ptr noundef nonnull %8) #24
  %9 = getelementptr inbounds nuw i8, ptr %0, i64 64
  tail call void @slurm_xfree(ptr noundef nonnull %9) #24
  %10 = getelementptr inbounds nuw i8, ptr %0, i64 96
  tail call void @slurm_xfree(ptr noundef nonnull %10) #24
  call void @slurm_xfree(ptr noundef nonnull %2) #24
  br label %11

11:                                               ; preds = %3, %1
  call void @llvm.lifetime.end.p0(i64 8, ptr nonnull %2) #24
  ret void
}